target datalayout = "e-m:e-p270:32:32-p271:32:32-p272:64:64-i64:64-i128:128-f80:128-n8:16:32:64-S128"
target triple = "x86_64-pc-linux-gnu"

; Function Attrs: nounwind uwtable
define hidden void @php_filter_special_chars(ptr noundef %0, i64 noundef %1, ptr noundef %2, ptr noundef %3) #0 {
  %5 = alloca ptr, align 8
  %6 = alloca i64, align 8
  %7 = alloca ptr, align 8
  %8 = alloca ptr, align 8
  %9 = alloca [256 x i8], align 16
  store ptr %0, ptr %5, align 8, !tbaa !4
  store i64 %1, ptr %6, align 8, !tbaa !9
  store ptr %2, ptr %7, align 8, !tbaa !4
  store ptr %3, ptr %8, align 8, !tbaa !11
  call void @llvm.lifetime.start.p0(i64 256, ptr %9) #12
  call void @llvm.memset.p0.i64(ptr align 16 %9, i8 0, i64 256, i1 false)
  %10 = load ptr, ptr %5, align 8, !tbaa !4
  %11 = load i64, ptr %6, align 8, !tbaa !9
  call void @php_filter_strip(ptr noundef %10, i64 noundef %11)
  %12 = getelementptr inbounds [256 x i8], ptr %9, i64 0, i64 0
  store i8 1, ptr %12, align 16, !tbaa !13
  %13 = getelementptr inbounds [256 x i8], ptr %9, i64 0, i64 38
  store i8 1, ptr %13, align 2, !tbaa !13
  %14 = getelementptr inbounds [256 x i8], ptr %9, i64 0, i64 62
  store i8 1, ptr %14, align 2, !tbaa !13
  %15 = getelementptr inbounds [256 x i8], ptr %9, i64 0, i64 60
  store i8 1, ptr %15, align 4, !tbaa !13
  %16 = getelementptr inbounds [256 x i8], ptr %9, i64 0, i64 34
  store i8 1, ptr %16, align 2, !tbaa !13
  %17 = getelementptr inbounds [256 x i8], ptr %9, i64 0, i64 39
  store i8 1, ptr %17, align 1, !tbaa !13
  %18 = getelementptr inbounds [256 x i8], ptr %9, i64 0, i64 0
  call void @llvm.memset.p0.i64(ptr align 16 %18, i8 1, i64 32, i1 false)
  %19 = load i64, ptr %6, align 8, !tbaa !9
  %20 = and i64 %19, 32
  %21 = icmp ne i64 %20, 0
  br i1 %21, label %22, label %25

22:                                               ; preds = %4
  %23 = getelementptr inbounds [256 x i8], ptr %9, i64 0, i64 0
  %24 = getelementptr inbounds i8, ptr %23, i64 127
  call void @llvm.memset.p0.i64(ptr align 1 %24, i8 1, i64 129, i1 false)
  br label %25

25:                                               ; preds = %22, %4
  %26 = load ptr, ptr %5, align 8, !tbaa !4
  %27 = getelementptr inbounds [256 x i8], ptr %9, i64 0, i64 0
  call void @php_filter_encode_html(ptr noundef %26, ptr noundef %27)
  call void @llvm.lifetime.end.p0(i64 256, ptr %9) #12
  ret void
}