; Function Attrs: nounwind uwtable
define hidden void @php_filter_special_chars(ptr noundef %0, i64 noundef %1, ptr noundef readnone captures(none) %2, ptr noundef readnone captures(none) %3) local_unnamed_addr #0 {
  %5 = alloca [256 x i8], align 16
  call void @llvm.lifetime.start.p0(i64 256, ptr nonnull %5) #9
  %6 = getelementptr inbounds nuw i8, ptr %5, i64 32
  call void @llvm.memset.p0.i64(ptr noundef nonnull align 16 dereferenceable(256) %6, i8 0, i64 224, i1 false)
  tail call fastcc void @php_filter_strip(ptr noundef %0, i64 noundef %1)
  %7 = getelementptr inbounds nuw i8, ptr %5, i64 38
  store i8 1, ptr %7, align 2, !tbaa !4
  %8 = getelementptr inbounds nuw i8, ptr %5, i64 62
  store i8 1, ptr %8, align 2, !tbaa !4
  %9 = getelementptr inbounds nuw i8, ptr %5, i64 60
  store i8 1, ptr %9, align 4, !tbaa !4
  %10 = getelementptr inbounds nuw i8, ptr %5, i64 34
  store i8 1, ptr %10, align 2, !tbaa !4
  %11 = getelementptr inbounds nuw i8, ptr %5, i64 39
  store i8 1, ptr %11, align 1, !tbaa !4
  %12 = and i64 %1, 32
  %.not = icmp eq i64 %12, 0
  call void @llvm.memset.p0.i64(ptr noundef nonnull align 16 dereferenceable(32) %5, i8 1, i64 32, i1 false)
  br i1 %.not, label %15, label %13

13:                                               ; preds = %4
  %14 = getelementptr inbounds nuw i8, ptr %5, i64 127
  call void @llvm.memset.p0.i64(ptr noundef nonnull align 1 dereferenceable(129) %14, i8 1, i64 129, i1 false)
  br label %15

15:                                               ; preds = %13, %4
  call fastcc void @php_filter_encode_html(ptr noundef %0, ptr noundef %5)
  call void @llvm.lifetime.end.p0(i64 256, ptr nonnull %5) #9
  ret void
}